; Function Attrs: mustprogress uwtable
define hidden noundef i32 @_ZN5lackr5eagerEv(ptr noundef nonnull align 8 dereferenceable(297) %0) local_unnamed_addr #3 align 2 personality ptr @__gxx_personality_v0 {
  %2 = alloca %class.obj_ref.61, align 8
  %3 = getelementptr inbounds nuw i8, ptr %0, i64 48
  %4 = load ptr, ptr %3, align 8, !tbaa !10
  %5 = icmp eq ptr %4, null
  br i1 %5, label %_ZN5lackr16push_abstractionEv.exit, label %_ZNK15ref_vector_coreI4expr19ref_manager_wrapperIS0_11ast_managerEE3endEv.exit.i

_ZNK15ref_vector_coreI4expr19ref_manager_wrapperIS0_11ast_managerEE3endEv.exit.i: ; preds = %1
  %6 = getelementptr inbounds i8, ptr %4, i64 -4
  %7 = load i32, ptr %6, align 4, !tbaa !83
  %8 = zext i32 %7 to i64
  %9 = getelementptr inbounds nuw ptr, ptr %4, i64 %8
  %.not8.i = icmp eq i32 %7, 0
  br i1 %.not8.i, label %_ZN5lackr16push_abstractionEv.exit, label %.lr.ph.i

.lr.ph.i:                                         ; preds = %_ZNK15ref_vector_coreI4expr19ref_manager_wrapperIS0_11ast_managerEE3endEv.exit.i
  %10 = getelementptr inbounds nuw i8, ptr %0, i64 112
  br label %11

11:                                               ; preds = %11, %.lr.ph.i
  %.09.i = phi ptr [ %4, %.lr.ph.i ], [ %14, %11 ]
  %12 = load ptr, ptr %.09.i, align 8, !tbaa !84
  %13 = load ptr, ptr %10, align 8, !tbaa !30
  tail call void @_ZN6solver11assert_exprEP4expr(ptr noundef nonnull align 8 dereferenceable(96) %13, ptr noundef %12)
  %14 = getelementptr inbounds nuw i8, ptr %.09.i, i64 8
  %.not.i = icmp eq ptr %14, %9
  br i1 %.not.i, label %_ZN5lackr16push_abstractionEv.exit, label %11

_ZN5lackr16push_abstractionEv.exit:               ; preds = %11, %1, %_ZNK15ref_vector_coreI4expr19ref_manager_wrapperIS0_11ast_managerEE3endEv.exit.i
  %15 = getelementptr inbounds nuw i8, ptr %0, i64 112
  %16 = load ptr, ptr %15, align 8, !tbaa !30
  %17 = tail call noundef i32 @_ZN6solver9check_satEjPKP4expr(ptr noundef nonnull align 8 dereferenceable(96) %16, i32 noundef 0, ptr noundef null)
  %18 = icmp eq i32 %17, -1
  br i1 %18, label %55, label %19

19:                                               ; preds = %_ZN5lackr16push_abstractionEv.exit
  tail call void @_ZN5lackr9eager_encEv(ptr noundef nonnull align 8 dereferenceable(297) %0)
  call void @llvm.lifetime.start.p0(i64 16, ptr nonnull %2) #19
  %20 = getelementptr inbounds nuw i8, ptr %0, i64 176
  tail call void @llvm.experimental.noalias.scope.decl(metadata !130)
  %21 = load ptr, ptr %20, align 8, !tbaa !86, !noalias !130
  %22 = getelementptr inbounds nuw i8, ptr %0, i64 184
  %23 = load ptr, ptr %22, align 8, !tbaa !10, !noalias !130
  %24 = icmp eq ptr %23, null
  br i1 %24, label %_ZNK15ref_vector_coreI4expr19ref_manager_wrapperIS0_11ast_managerEE4sizeEv.exit.i, label %25

25:                                               ; preds = %19
  %26 = getelementptr inbounds i8, ptr %23, i64 -4
  %27 = load i32, ptr %26, align 4, !tbaa !83, !noalias !130
  br label %_ZNK15ref_vector_coreI4expr19ref_manager_wrapperIS0_11ast_managerEE4sizeEv.exit.i

_ZNK15ref_vector_coreI4expr19ref_manager_wrapperIS0_11ast_managerEE4sizeEv.exit.i: ; preds = %25, %19
  %.0.i.i.i = phi i32 [ %27, %25 ], [ 0, %19 ]
  %28 = tail call noundef ptr @_Z6mk_andR11ast_managerjPKP4expr(ptr noundef nonnull align 8 dereferenceable(976) %21, i32 noundef %.0.i.i.i, ptr noundef %23), !noalias !130
  %29 = load ptr, ptr %20, align 8, !tbaa !86, !noalias !130
  store ptr %28, ptr %2, align 8, !tbaa !133, !alias.scope !130
  %30 = getelementptr inbounds nuw i8, ptr %2, i64 8
  store ptr %29, ptr %30, align 8, !tbaa !3, !alias.scope !130
  %.not.i.i.i = icmp eq ptr %28, null
  br i1 %.not.i.i.i, label %_Z6mk_andRK10ref_vectorI4expr11ast_managerE.exit, label %_ZN11ast_manager7inc_refEP3ast.exit.i.i.i

_ZN11ast_manager7inc_refEP3ast.exit.i.i.i:        ; preds = %_ZNK15ref_vector_coreI4expr19ref_manager_wrapperIS0_11ast_managerEE4sizeEv.exit.i
  %31 = getelementptr inbounds nuw i8, ptr %28, i64 8
  %32 = load i32, ptr %31, align 4, !tbaa !87, !noalias !130
  %33 = add i32 %32, 1
  store i32 %33, ptr %31, align 4, !tbaa !87, !noalias !130
  br label %_Z6mk_andRK10ref_vectorI4expr11ast_managerE.exit

_Z6mk_andRK10ref_vectorI4expr11ast_managerE.exit: ; preds = %_ZNK15ref_vector_coreI4expr19ref_manager_wrapperIS0_11ast_managerEE4sizeEv.exit.i, %_ZN11ast_manager7inc_refEP3ast.exit.i.i.i
  %34 = getelementptr inbounds nuw i8, ptr %0, i64 160
  invoke void @_ZN11th_rewriterclER7obj_refI4expr11ast_managerE(ptr noundef nonnull align 8 dereferenceable(16) %34, ptr noundef nonnull align 8 dereferenceable(16) %2)
          to label %35 unwind label %53

35:                                               ; preds = %_Z6mk_andRK10ref_vectorI4expr11ast_managerE.exit
  %36 = load ptr, ptr %15, align 8, !tbaa !30
  %37 = load ptr, ptr %2, align 8, !tbaa !133
  invoke void @_ZN6solver11assert_exprEP4expr(ptr noundef nonnull align 8 dereferenceable(96) %36, ptr noundef %37)
          to label %38 unwind label %53

38:                                               ; preds = %35
  %39 = load ptr, ptr %15, align 8, !tbaa !30
  %40 = invoke noundef i32 @_ZN6solver9check_satEjPKP4expr(ptr noundef nonnull align 8 dereferenceable(96) %39, i32 noundef 0, ptr noundef null)
          to label %41 unwind label %53

41:                                               ; preds = %38
  %42 = load ptr, ptr %2, align 8, !tbaa !133
  %.not.i.i = icmp eq ptr %42, null
  br i1 %.not.i.i, label %_ZN7obj_refI4expr11ast_managerED2Ev.exit, label %43

43:                                               ; preds = %41
  %44 = load ptr, ptr %30, align 8, !tbaa !135
  %45 = getelementptr inbounds nuw i8, ptr %42, i64 8
  %46 = load i32, ptr %45, align 4, !tbaa !87
  %47 = add i32 %46, -1
  store i32 %47, ptr %45, align 4, !tbaa !87
  %48 = icmp eq i32 %47, 0
  br i1 %48, label %49, label %_ZN7obj_refI4expr11ast_managerED2Ev.exit

49:                                               ; preds = %43
  invoke void @_ZN11ast_manager11delete_nodeEP3ast(ptr noundef nonnull align 8 dereferenceable(976) %44, ptr noundef nonnull %42)
          to label %_ZN7obj_refI4expr11ast_managerED2Ev.exit unwind label %50

50:                                               ; preds = %49
  %51 = landingpad { ptr, i32 }
          catch ptr null
  %52 = extractvalue { ptr, i32 } %51, 0
  call void @__clang_call_terminate(ptr %52) #20
  unreachable

_ZN7obj_refI4expr11ast_managerED2Ev.exit:         ; preds = %41, %43, %49
  call void @llvm.lifetime.end.p0(i64 16, ptr nonnull %2) #19
  br label %55

53:                                               ; preds = %38, %35, %_Z6mk_andRK10ref_vectorI4expr11ast_managerE.exit
  %54 = landingpad { ptr, i32 }
          cleanup
  call void @_ZN7obj_refI4expr11ast_managerED2Ev(ptr noundef nonnull align 8 dereferenceable(16) %2) #19
  call void @llvm.lifetime.end.p0(i64 16, ptr nonnull %2) #19
  resume { ptr, i32 } %54

55:                                               ; preds = %_ZN5lackr16push_abstractionEv.exit, %_ZN7obj_refI4expr11ast_managerED2Ev.exit
  %.0 = phi i32 [ %40, %_ZN7obj_refI4expr11ast_managerED2Ev.exit ], [ -1, %_ZN5lackr16push_abstractionEv.exit ]
  ret i32 %.0
}